target datalayout = "e-m:e-p270:32:32-p271:32:32-p272:64:64-i64:64-i128:128-f80:128-n8:16:32:64-S128"
target triple = "x86_64-unknown-linux-gnu"

%"class.node::MemoryRetainer" = type { ptr }
%"class.node::quic::TokenSecret" = type { %"class.node::MemoryRetainer", [16 x i8] }
%struct.ngtcp2_vec = type { ptr, i64 }
%"class.node::SocketAddress" = type { %"class.node::MemoryRetainer", %struct.sockaddr_storage }
%struct.sockaddr_storage = type { i16, [118 x i8], i64 }
%"class.node::quic::RegularToken" = type { %"class.node::MemoryRetainer", [57 x i8], %struct.ngtcp2_vec }
%struct.sockaddr = type { i16, [14 x i8] }

@_ZN4node4quic12RegularToken32QUIC_MIN_REGULARTOKEN_EXPIRATIONE = linkonce_odr dso_local constant i64 1000000000, comdat, align 8

; Function Attrs: mustprogress nounwind uwtable
define linkonce_odr dso_local noundef i64 @_ZN4node13SocketAddress9GetLengthEPK8sockaddr(ptr noundef %addr) #4 comdat align 2 {
entry:
  %addr.addr = alloca ptr, align 8
  store ptr %addr, ptr %addr.addr, align 8
  %0 = load ptr, ptr %addr.addr, align 8
  %sa_family = getelementptr inbounds %struct.sockaddr, ptr %0, i32 0, i32 0
  %1 = load i16, ptr %sa_family, align 2
  %conv = zext i16 %1 to i32
  %cmp = icmp eq i32 %conv, 2
  %cond = select i1 %cmp, i64 16, i64 28
  ret i64 %cond
}

; Function Attrs: mustprogress nounwind uwtable
define linkonce_odr dso_local noundef i64 @_ZN4node13SocketAddress9GetLengthEPK16sockaddr_storage(ptr noundef %addr) #4 comdat align 2 {
entry:
  %addr.addr = alloca ptr, align 8
  store ptr %addr, ptr %addr.addr, align 8
  %0 = load ptr, ptr %addr.addr, align 8
  %call = call noundef i64 @_ZN4node13SocketAddress9GetLengthEPK8sockaddr(ptr noundef %0)
  ret i64 %call
}

; Function Attrs: mustprogress nounwind uwtable
define linkonce_odr dso_local noundef nonnull align 8 dereferenceable(8) ptr @_ZSt3minImERKT_S2_S2_(ptr noundef nonnull align 8 dereferenceable(8) %__a, ptr noundef nonnull align 8 dereferenceable(8) %__b) #4 comdat {
entry:
  %retval = alloca ptr, align 8
  %__a.addr = alloca ptr, align 8
  %__b.addr = alloca ptr, align 8
  store ptr %__a, ptr %__a.addr, align 8
  store ptr %__b, ptr %__b.addr, align 8
  %0 = load ptr, ptr %__b.addr, align 8
  %1 = load i64, ptr %0, align 8
  %2 = load ptr, ptr %__a.addr, align 8
  %3 = load i64, ptr %2, align 8
  %cmp = icmp ult i64 %1, %3
  br i1 %cmp, label %if.then, label %if.end

if.then:                                          ; preds = %entry
  %4 = load ptr, ptr %__b.addr, align 8
  store ptr %4, ptr %retval, align 8
  br label %return

if.end:                                           ; preds = %entry
  %5 = load ptr, ptr %__a.addr, align 8
  store ptr %5, ptr %retval, align 8
  br label %return

return:                                           ; preds = %if.end, %if.then
  %6 = load ptr, ptr %retval, align 8
  ret ptr %6
}

; Function Attrs: mustprogress nounwind uwtable
define linkonce_odr dso_local noundef i64 @_ZNK4node13SocketAddress6lengthEv(ptr noundef nonnull align 8 dereferenceable(136) %this) #4 comdat align 2 {
entry:
  %this.addr = alloca ptr, align 8
  store ptr %this, ptr %this.addr, align 8
  %this1 = load ptr, ptr %this.addr, align 8
  %address_ = getelementptr inbounds %"class.node::SocketAddress", ptr %this1, i32 0, i32 1
  %call = call noundef i64 @_ZN4node13SocketAddress9GetLengthEPK16sockaddr_storage(ptr noundef %address_)
  ret i64 %call
}

; Function Attrs: mustprogress nounwind uwtable
define linkonce_odr dso_local noundef ptr @_ZNK4node13SocketAddress4dataEv(ptr noundef nonnull align 8 dereferenceable(136) %this) #4 comdat align 2 {
entry:
  %this.addr = alloca ptr, align 8
  store ptr %this, ptr %this.addr, align 8
  %this1 = load ptr, ptr %this.addr, align 8
  %address_ = getelementptr inbounds %"class.node::SocketAddress", ptr %this1, i32 0, i32 1
  ret ptr %address_
}

; Function Attrs: mustprogress nounwind uwtable
define dso_local noundef ptr @_ZNK4node4quic11TokenSecretcvPKhEv(ptr noundef nonnull align 8 dereferenceable(24) %this) #4 align 2 {
entry:
  %this.addr = alloca ptr, align 8
  store ptr %this, ptr %this.addr, align 8
  %this1 = load ptr, ptr %this.addr, align 8
  %buf_ = getelementptr inbounds %"class.node::quic::TokenSecret", ptr %this1, i32 0, i32 1
  %arraydecay = getelementptr inbounds [16 x i8], ptr %buf_, i64 0, i64 0
  ret ptr %arraydecay
}

; Function Attrs: mustprogress nounwind uwtable
define dso_local noundef zeroext i1 @_ZN4node4quic12RegularToken8ValidateEjRKNS_13SocketAddressERKNS0_11TokenSecretEm(ptr noundef nonnull align 8 dereferenceable(88) %this, i32 noundef %version, ptr noundef nonnull align 8 dereferenceable(136) %addr, ptr noundef nonnull align 8 dereferenceable(24) %token_secret, i64 noundef %verification_expiration) #4 align 2 {
entry:
  %retval = alloca i1, align 1
  %this.addr = alloca ptr, align 8
  %version.addr = alloca i32, align 4
  %addr.addr = alloca ptr, align 8
  %token_secret.addr = alloca ptr, align 8
  %verification_expiration.addr = alloca i64, align 8
  store ptr %this, ptr %this.addr, align 8
  store i32 %version, ptr %version.addr, align 4
  store ptr %addr, ptr %addr.addr, align 8
  store ptr %token_secret, ptr %token_secret.addr, align 8
  store i64 %verification_expiration, ptr %verification_expiration.addr, align 8
  %this1 = load ptr, ptr %this.addr, align 8
  %ptr_ = getelementptr inbounds %"class.node::quic::RegularToken", ptr %this1, i32 0, i32 2
  %base = getelementptr inbounds %struct.ngtcp2_vec, ptr %ptr_, i32 0, i32 0
  %0 = load ptr, ptr %base, align 8
  %cmp = icmp eq ptr %0, null
  br i1 %cmp, label %if.then, label %lor.lhs.false

lor.lhs.false:                                    ; preds = %entry
  %ptr_2 = getelementptr inbounds %"class.node::quic::RegularToken", ptr %this1, i32 0, i32 2
  %len = getelementptr inbounds %struct.ngtcp2_vec, ptr %ptr_2, i32 0, i32 1
  %1 = load i64, ptr %len, align 8
  %cmp3 = icmp eq i64 %1, 0
  br i1 %cmp3, label %if.then, label %if.end

if.then:                                          ; preds = %lor.lhs.false, %entry
  store i1 false, ptr %retval, align 1
  br label %return

if.end:                                           ; preds = %lor.lhs.false
  %ptr_4 = getelementptr inbounds %"class.node::quic::RegularToken", ptr %this1, i32 0, i32 2
  %base5 = getelementptr inbounds %struct.ngtcp2_vec, ptr %ptr_4, i32 0, i32 0
  %2 = load ptr, ptr %base5, align 8
  %ptr_6 = getelementptr inbounds %"class.node::quic::RegularToken", ptr %this1, i32 0, i32 2
  %len7 = getelementptr inbounds %struct.ngtcp2_vec, ptr %ptr_6, i32 0, i32 1
  %3 = load i64, ptr %len7, align 8
  %4 = load ptr, ptr %token_secret.addr, align 8
  %call = call noundef ptr @_ZNK4node4quic11TokenSecretcvPKhEv(ptr noundef nonnull align 8 dereferenceable(24) %4)
  %5 = load ptr, ptr %addr.addr, align 8
  %call8 = call noundef ptr @_ZNK4node13SocketAddress4dataEv(ptr noundef nonnull align 8 dereferenceable(136) %5)
  %6 = load ptr, ptr %addr.addr, align 8
  %call9 = call noundef i64 @_ZNK4node13SocketAddress6lengthEv(ptr noundef nonnull align 8 dereferenceable(136) %6)
  %conv = trunc i64 %call9 to i32
  %call10 = call noundef nonnull align 8 dereferenceable(8) ptr @_ZSt3minImERKT_S2_S2_(ptr noundef nonnull align 8 dereferenceable(8) %verification_expiration.addr, ptr noundef nonnull align 8 dereferenceable(8) @_ZN4node4quic12RegularToken32QUIC_MIN_REGULARTOKEN_EXPIRATIONE)
  %7 = load i64, ptr %call10, align 8
  %call11 = call i64 @uv_hrtime()
  %call12 = call i32 @ngtcp2_crypto_verify_regular_token(ptr noundef %2, i64 noundef %3, ptr noundef %call, i64 noundef 16, ptr noundef %call8, i32 noundef %conv, i64 noundef %7, i64 noundef %call11)
  %cmp13 = icmp eq i32 %call12, 0
  store i1 %cmp13, ptr %retval, align 1
  br label %return

return:                                           ; preds = %if.end, %if.then
  %8 = load i1, ptr %retval, align 1
  ret i1 %8
}