; Function Attrs: mustprogress nounwind uwtable
define dso_local noundef zeroext i1 @_ZN4node4quic12RegularToken8ValidateEjRKNS_13SocketAddressERKNS0_11TokenSecretEm(ptr nocapture noundef nonnull readonly align 8 dereferenceable(88) %this, i32 noundef %version, ptr noundef nonnull align 8 dereferenceable(136) %addr, ptr noundef nonnull align 8 dereferenceable(24) %token_secret, i64 noundef %verification_expiration) local_unnamed_addr #3 align 2 {
entry:
  %ptr_ = getelementptr inbounds i8, ptr %this, i64 72
  %0 = load ptr, ptr %ptr_, align 8
  %cmp = icmp eq ptr %0, null
  br i1 %cmp, label %return, label %lor.lhs.false

lor.lhs.false:                                    ; preds = %entry
  %len = getelementptr inbounds i8, ptr %this, i64 80
  %1 = load i64, ptr %len, align 8
  %cmp3 = icmp eq i64 %1, 0
  br i1 %cmp3, label %return, label %if.end

if.end:                                           ; preds = %lor.lhs.false
  %buf_.i = getelementptr inbounds i8, ptr %token_secret, i64 8
  %address_.i = getelementptr inbounds i8, ptr %addr, i64 8
  %2 = load i16, ptr %address_.i, align 8
  %cmp.i.i.i = icmp eq i16 %2, 2
  %conv = select i1 %cmp.i.i.i, i32 16, i32 28
  %.sroa.speculated = tail call i64 @llvm.umin.i64(i64 %verification_expiration, i64 1000000000)
  %call11 = tail call i64 @uv_hrtime() #17
  %call12 = tail call i32 @ngtcp2_crypto_verify_regular_token(ptr noundef nonnull %0, i64 noundef %1, ptr noundef nonnull %buf_.i, i64 noundef 16, ptr noundef nonnull %address_.i, i32 noundef %conv, i64 noundef %.sroa.speculated, i64 noundef %call11) #17
  %cmp13 = icmp eq i32 %call12, 0
  br label %return

return:                                           ; preds = %entry, %lor.lhs.false, %if.end
  %retval.0 = phi i1 [ %cmp13, %if.end ], [ false, %lor.lhs.false ], [ false, %entry ]
  ret i1 %retval.0
}